target datalayout = "e-m:e-p270:32:32-p271:32:32-p272:64:64-i64:64-i128:128-f80:128-n8:16:32:64-S128"
target triple = "x86_64-pc-linux-gnu"

%struct._priv_exr_context_t = type { i8, i8, i8, i8, i8, i8, i8, i8, %struct.exr_attr_string_t, %struct.exr_attr_string_t, ptr, ptr, ptr, ptr, ptr, ptr, ptr, ptr, i32, i32, i32, i32, i32, float, ptr, ptr, ptr, i64, ptr, ptr, i64, i32, i32, i32, i32, %struct._priv_exr_part_t, ptr, ptr, %struct.exr_attribute_list, %union.pthread_mutex_t, i8, i8, [2 x i8], i32 }
%struct.exr_attr_string_t = type { i32, i32, ptr }
%struct._priv_exr_part_t = type { i32, i32, %struct.exr_attribute_list, ptr, ptr, ptr, ptr, ptr, ptr, ptr, ptr, ptr, ptr, ptr, ptr, ptr, ptr, %struct.exr_attr_box2i_t, %struct.exr_attr_box2i_t, i32, i32, i32, float, i32, i32, ptr, ptr, ptr, ptr, i64, i16, i16, i32, i64, i64 }
%struct.exr_attr_box2i_t = type { %struct.exr_attr_v2i_t, %struct.exr_attr_v2i_t }
%struct.exr_attr_v2i_t = type { i32, i32 }
%struct.exr_attribute_list = type { i32, i32, ptr, ptr }
%union.pthread_mutex_t = type { %struct.__pthread_mutex_s }
%struct.__pthread_mutex_s = type { i32, i32, i32, i32, i32, i16, i16, %struct.__pthread_internal_list }
%struct.__pthread_internal_list = type { ptr, ptr }
%struct.exr_attribute_t = type { ptr, ptr, i8, i8, [2 x i8], i32, %union.anon }
%union.anon = type { double }

@.str = private unnamed_addr constant [29 x i8] c"Part index (%d) out of range\00", align 1
@.str.4 = private unnamed_addr constant [46 x i8] c"Invalid required attribute type '%s' for '%s'\00", align 1
@.str.8 = private unnamed_addr constant [41 x i8] c"Missing value for data window assignment\00", align 1
@.str.9 = private unnamed_addr constant [14 x i8] c"displayWindow\00", align 1

; Function Attrs: inlinehint nounwind uwtable
define internal void @internal_exr_unlock(ptr noundef %0) #2 {
  %2 = alloca ptr, align 8
  %3 = alloca ptr, align 8
  store ptr %0, ptr %2, align 8, !tbaa !3
  call void @llvm.lifetime.start.p0(i64 8, ptr %3) #8
  %4 = load ptr, ptr %2, align 8, !tbaa !3
  %5 = ptrtoint ptr %4 to i64
  %6 = inttoptr i64 %5 to ptr
  store ptr %6, ptr %3, align 8, !tbaa !3
  %7 = load ptr, ptr %3, align 8, !tbaa !3
  %8 = getelementptr inbounds nuw %struct._priv_exr_context_t, ptr %7, i32 0, i32 39
  %9 = call i32 @pthread_mutex_unlock(ptr noundef %8) #8
  call void @llvm.lifetime.end.p0(i64 8, ptr %3) #8
  ret void
}

; Function Attrs: inlinehint nounwind uwtable
define internal void @internal_exr_lock(ptr noundef %0) #2 {
  %2 = alloca ptr, align 8
  %3 = alloca ptr, align 8
  store ptr %0, ptr %2, align 8, !tbaa !3
  call void @llvm.lifetime.start.p0(i64 8, ptr %3) #8
  %4 = load ptr, ptr %2, align 8, !tbaa !3
  %5 = ptrtoint ptr %4 to i64
  %6 = inttoptr i64 %5 to ptr
  store ptr %6, ptr %3, align 8, !tbaa !3
  %7 = load ptr, ptr %3, align 8, !tbaa !3
  %8 = getelementptr inbounds nuw %struct._priv_exr_context_t, ptr %7, i32 0, i32 39
  %9 = call i32 @pthread_mutex_lock(ptr noundef %8) #8
  call void @llvm.lifetime.end.p0(i64 8, ptr %3) #8
  ret void
}

; Function Attrs: nounwind uwtable
define i32 @exr_set_display_window(ptr noundef %0, i32 noundef %1, ptr noundef %2) #0 {
  %4 = alloca i32, align 4
  %5 = alloca ptr, align 8
  %6 = alloca i32, align 4
  %7 = alloca ptr, align 8
  %8 = alloca ptr, align 8
  %9 = alloca i32, align 4
  %10 = alloca ptr, align 8
  %11 = alloca i32, align 4
  store ptr %0, ptr %5, align 8, !tbaa !3
  store i32 %1, ptr %6, align 4, !tbaa !8
  store ptr %2, ptr %7, align 8, !tbaa !35
  %12 = load ptr, ptr %7, align 8, !tbaa !35
  %13 = icmp ne ptr %12, null
  br i1 %13, label %20, label %14

14:                                               ; preds = %3
  %15 = load ptr, ptr %5, align 8, !tbaa !3
  %16 = getelementptr inbounds nuw %struct._priv_exr_context_t, ptr %15, i32 0, i32 13
  %17 = load ptr, ptr %16, align 8, !tbaa !45
  %18 = load ptr, ptr %5, align 8, !tbaa !3
  %19 = call i32 %17(ptr noundef %18, i32 noundef 3, ptr noundef @.str.8)
  store i32 %19, ptr %4, align 4
  br label %125

20:                                               ; preds = %3
  call void @llvm.lifetime.start.p0(i64 8, ptr %8) #8
  store ptr null, ptr %8, align 8, !tbaa !35
  call void @llvm.lifetime.start.p0(i64 4, ptr %9) #8
  store i32 0, ptr %9, align 4, !tbaa !8
  call void @llvm.lifetime.start.p0(i64 8, ptr %10) #8
  %21 = load ptr, ptr %5, align 8, !tbaa !3
  %22 = icmp ne ptr %21, null
  br i1 %22, label %24, label %23

23:                                               ; preds = %20
  store i32 2, ptr %4, align 4
  store i32 1, ptr %11, align 4
  br label %124

24:                                               ; preds = %20
  %25 = load ptr, ptr %5, align 8, !tbaa !3
  call void @internal_exr_lock(ptr noundef %25)
  %26 = load i32, ptr %6, align 4, !tbaa !8
  %27 = icmp slt i32 %26, 0
  br i1 %27, label %34, label %28

28:                                               ; preds = %24
  %29 = load i32, ptr %6, align 4, !tbaa !8
  %30 = load ptr, ptr %5, align 8, !tbaa !3
  %31 = getelementptr inbounds nuw %struct._priv_exr_context_t, ptr %30, i32 0, i32 34
  %32 = load i32, ptr %31, align 4, !tbaa !26
  %33 = icmp sge i32 %29, %32
  br i1 %33, label %34, label %42

34:                                               ; preds = %28, %24
  %35 = load ptr, ptr %5, align 8, !tbaa !3
  call void @internal_exr_unlock(ptr noundef %35)
  %36 = load ptr, ptr %5, align 8, !tbaa !3
  %37 = getelementptr inbounds nuw %struct._priv_exr_context_t, ptr %36, i32 0, i32 14
  %38 = load ptr, ptr %37, align 8, !tbaa !27
  %39 = load ptr, ptr %5, align 8, !tbaa !3
  %40 = load i32, ptr %6, align 4, !tbaa !8
  %41 = call i32 (ptr, i32, ptr, ...) %38(ptr noundef %39, i32 noundef 4, ptr noundef @.str, i32 noundef %40)
  store i32 %41, ptr %4, align 4
  store i32 1, ptr %11, align 4
  br label %124

42:                                               ; preds = %28
  %43 = load ptr, ptr %5, align 8, !tbaa !3
  %44 = getelementptr inbounds nuw %struct._priv_exr_context_t, ptr %43, i32 0, i32 37
  %45 = load ptr, ptr %44, align 8, !tbaa !28
  %46 = load i32, ptr %6, align 4, !tbaa !8
  %47 = sext i32 %46 to i64
  %48 = getelementptr inbounds ptr, ptr %45, i64 %47
  %49 = load ptr, ptr %48, align 8, !tbaa !29
  store ptr %49, ptr %10, align 8, !tbaa !29
  %50 = load ptr, ptr %5, align 8, !tbaa !3
  %51 = getelementptr inbounds nuw %struct._priv_exr_context_t, ptr %50, i32 0, i32 0
  %52 = load i8, ptr %51, align 8, !tbaa !12
  %53 = zext i8 %52 to i32
  %54 = icmp eq i32 %53, 0
  br i1 %54, label %55, label %62

55:                                               ; preds = %42
  %56 = load ptr, ptr %5, align 8, !tbaa !3
  call void @internal_exr_unlock(ptr noundef %56)
  %57 = load ptr, ptr %5, align 8, !tbaa !3
  %58 = getelementptr inbounds nuw %struct._priv_exr_context_t, ptr %57, i32 0, i32 12
  %59 = load ptr, ptr %58, align 8, !tbaa !31
  %60 = load ptr, ptr %5, align 8, !tbaa !3
  %61 = call i32 %59(ptr noundef %60, i32 noundef 8)
  store i32 %61, ptr %4, align 4
  store i32 1, ptr %11, align 4
  br label %124

62:                                               ; preds = %42
  %63 = load ptr, ptr %5, align 8, !tbaa !3
  %64 = getelementptr inbounds nuw %struct._priv_exr_context_t, ptr %63, i32 0, i32 0
  %65 = load i8, ptr %64, align 8, !tbaa !12
  %66 = zext i8 %65 to i32
  %67 = icmp eq i32 %66, 3
  br i1 %67, label %68, label %75

68:                                               ; preds = %62
  %69 = load ptr, ptr %5, align 8, !tbaa !3
  call void @internal_exr_unlock(ptr noundef %69)
  %70 = load ptr, ptr %5, align 8, !tbaa !3
  %71 = getelementptr inbounds nuw %struct._priv_exr_context_t, ptr %70, i32 0, i32 12
  %72 = load ptr, ptr %71, align 8, !tbaa !31
  %73 = load ptr, ptr %5, align 8, !tbaa !3
  %74 = call i32 %72(ptr noundef %73, i32 noundef 21)
  store i32 %74, ptr %4, align 4
  store i32 1, ptr %11, align 4
  br label %124

75:                                               ; preds = %62
  %76 = load ptr, ptr %10, align 8, !tbaa !29
  %77 = getelementptr inbounds nuw %struct._priv_exr_part_t, ptr %76, i32 0, i32 6
  %78 = load ptr, ptr %77, align 8, !tbaa !48
  %79 = icmp ne ptr %78, null
  br i1 %79, label %87, label %80

80:                                               ; preds = %75
  %81 = load ptr, ptr %5, align 8, !tbaa !3
  %82 = load ptr, ptr %10, align 8, !tbaa !29
  %83 = getelementptr inbounds nuw %struct._priv_exr_part_t, ptr %82, i32 0, i32 2
  %84 = load ptr, ptr %10, align 8, !tbaa !29
  %85 = getelementptr inbounds nuw %struct._priv_exr_part_t, ptr %84, i32 0, i32 6
  %86 = call i32 @exr_attr_list_add(ptr noundef %81, ptr noundef %83, ptr noundef @.str.9, i32 noundef 1, i32 noundef 0, ptr noundef null, ptr noundef %85)
  store i32 %86, ptr %9, align 4, !tbaa !8
  br label %107

87:                                               ; preds = %75
  %88 = load ptr, ptr %10, align 8, !tbaa !29
  %89 = getelementptr inbounds nuw %struct._priv_exr_part_t, ptr %88, i32 0, i32 6
  %90 = load ptr, ptr %89, align 8, !tbaa !48
  %91 = getelementptr inbounds nuw %struct.exr_attribute_t, ptr %90, i32 0, i32 5
  %92 = load i32, ptr %91, align 4, !tbaa !39
  %93 = icmp ne i32 %92, 1
  br i1 %93, label %94, label %106

94:                                               ; preds = %87
  %95 = load ptr, ptr %5, align 8, !tbaa !3
  call void @internal_exr_unlock(ptr noundef %95)
  %96 = load ptr, ptr %5, align 8, !tbaa !3
  %97 = getelementptr inbounds nuw %struct._priv_exr_context_t, ptr %96, i32 0, i32 14
  %98 = load ptr, ptr %97, align 8, !tbaa !27
  %99 = load ptr, ptr %5, align 8, !tbaa !3
  %100 = load ptr, ptr %10, align 8, !tbaa !29
  %101 = getelementptr inbounds nuw %struct._priv_exr_part_t, ptr %100, i32 0, i32 6
  %102 = load ptr, ptr %101, align 8, !tbaa !48
  %103 = getelementptr inbounds nuw %struct.exr_attribute_t, ptr %102, i32 0, i32 1
  %104 = load ptr, ptr %103, align 8, !tbaa !41
  %105 = call i32 (ptr, i32, ptr, ...) %98(ptr noundef %99, i32 noundef 6, ptr noundef @.str.4, ptr noundef %104, ptr noundef @.str.9)
  store i32 %105, ptr %4, align 4
  store i32 1, ptr %11, align 4
  br label %124

106:                                              ; preds = %87
  br label %107

107:                                              ; preds = %106, %80
  %108 = load ptr, ptr %10, align 8, !tbaa !29
  %109 = getelementptr inbounds nuw %struct._priv_exr_part_t, ptr %108, i32 0, i32 6
  %110 = load ptr, ptr %109, align 8, !tbaa !48
  store ptr %110, ptr %8, align 8, !tbaa !35
  %111 = load i32, ptr %9, align 4, !tbaa !8
  %112 = icmp eq i32 %111, 0
  br i1 %112, label %113, label %121

113:                                              ; preds = %107
  %114 = load ptr, ptr %8, align 8, !tbaa !35
  %115 = getelementptr inbounds nuw %struct.exr_attribute_t, ptr %114, i32 0, i32 6
  %116 = load ptr, ptr %115, align 8, !tbaa !42
  %117 = load ptr, ptr %7, align 8, !tbaa !35
  call void @llvm.memcpy.p0.p0.i64(ptr align 1 %116, ptr align 1 %117, i64 16, i1 false), !tbaa.struct !47
  %118 = load ptr, ptr %10, align 8, !tbaa !29
  %119 = getelementptr inbounds nuw %struct._priv_exr_part_t, ptr %118, i32 0, i32 18
  %120 = load ptr, ptr %7, align 8, !tbaa !35
  call void @llvm.memcpy.p0.p0.i64(ptr align 8 %119, ptr align 1 %120, i64 16, i1 false), !tbaa.struct !47
  br label %121

121:                                              ; preds = %113, %107
  %122 = load ptr, ptr %5, align 8, !tbaa !3
  call void @internal_exr_unlock(ptr noundef %122)
  %123 = load i32, ptr %9, align 4, !tbaa !8
  store i32 %123, ptr %4, align 4
  store i32 1, ptr %11, align 4
  br label %124

124:                                              ; preds = %121, %94, %68, %55, %34, %23
  call void @llvm.lifetime.end.p0(i64 8, ptr %10) #8
  call void @llvm.lifetime.end.p0(i64 4, ptr %9) #8
  call void @llvm.lifetime.end.p0(i64 8, ptr %8) #8
  br label %125

125:                                              ; preds = %124, %14
  %126 = load i32, ptr %4, align 4
  ret i32 %126
}